target datalayout = "e-m:e-p270:32:32-p271:32:32-p272:64:64-i64:64-i128:128-f80:128-n8:16:32:64-S128"
target triple = "x86_64-pc-linux-gnu"

%"struct.__cxxabiv1::__base_class_type_info" = type { ptr, i64 }

; Function Attrs: inlinehint mustprogress nounwind uwtable
define internal noundef i64 @_ZL21update_offset_to_basePKcl(ptr noundef %0, i64 noundef %1) #5 {
  %3 = alloca ptr, align 8
  %4 = alloca i64, align 8
  store ptr %0, ptr %3, align 8, !tbaa !38
  store i64 %1, ptr %4, align 8, !tbaa !63
  %5 = load ptr, ptr %3, align 8, !tbaa !38
  %6 = load i64, ptr %4, align 8, !tbaa !63
  %7 = getelementptr inbounds i8, ptr %5, i64 %6
  %8 = load i64, ptr %7, align 8, !tbaa !63
  ret i64 %8
}

; Function Attrs: inlinehint mustprogress nounwind uwtable
define internal noundef ptr @_ZL12strip_vtableIKcEPT_S2_(ptr noundef %0) #5 {
  %2 = alloca ptr, align 8
  store ptr %0, ptr %2, align 8, !tbaa !38
  %3 = load ptr, ptr %2, align 8, !tbaa !38
  ret ptr %3
}

; Function Attrs: mustprogress uwtable
define hidden void @_ZNK10__cxxabiv122__base_class_type_info16search_below_dstEPNS_19__dynamic_cast_infoEPKvib(ptr noundef nonnull align 8 dereferenceable(16) %0, ptr noundef %1, ptr noundef %2, i32 noundef %3, i1 noundef zeroext %4) #4 align 2 {
  %6 = alloca ptr, align 8
  %7 = alloca ptr, align 8
  %8 = alloca ptr, align 8
  %9 = alloca i32, align 4
  %10 = alloca i8, align 1
  %11 = alloca i64, align 8
  %12 = alloca ptr, align 8
  store ptr %0, ptr %6, align 8, !tbaa !76
  store ptr %1, ptr %7, align 8, !tbaa !68
  store ptr %2, ptr %8, align 8, !tbaa !37
  store i32 %3, ptr %9, align 4, !tbaa !70
  %13 = zext i1 %4 to i8
  store i8 %13, ptr %10, align 1, !tbaa !33
  %14 = load ptr, ptr %6, align 8
  call void @llvm.lifetime.start.p0(i64 8, ptr %11) #11
  %15 = getelementptr inbounds nuw %"struct.__cxxabiv1::__base_class_type_info", ptr %14, i32 0, i32 1
  %16 = load i64, ptr %15, align 8, !tbaa !78
  %17 = ashr i64 %16, 8
  store i64 %17, ptr %11, align 8, !tbaa !63
  %18 = getelementptr inbounds nuw %"struct.__cxxabiv1::__base_class_type_info", ptr %14, i32 0, i32 1
  %19 = load i64, ptr %18, align 8, !tbaa !78
  %20 = and i64 %19, 1
  %21 = icmp ne i64 %20, 0
  br i1 %21, label %22, label %29

22:                                               ; preds = %5
  call void @llvm.lifetime.start.p0(i64 8, ptr %12) #11
  %23 = load ptr, ptr %8, align 8, !tbaa !37
  %24 = load ptr, ptr %23, align 8, !tbaa !38
  %25 = call noundef ptr @_ZL12strip_vtableIKcEPT_S2_(ptr noundef %24)
  store ptr %25, ptr %12, align 8, !tbaa !38
  %26 = load ptr, ptr %12, align 8, !tbaa !38
  %27 = load i64, ptr %11, align 8, !tbaa !63
  %28 = call noundef i64 @_ZL21update_offset_to_basePKcl(ptr noundef %26, i64 noundef %27)
  store i64 %28, ptr %11, align 8, !tbaa !63
  call void @llvm.lifetime.end.p0(i64 8, ptr %12) #11
  br label %29

29:                                               ; preds = %22, %5
  %30 = getelementptr inbounds nuw %"struct.__cxxabiv1::__base_class_type_info", ptr %14, i32 0, i32 0
  %31 = load ptr, ptr %30, align 8, !tbaa !80
  %32 = load ptr, ptr %7, align 8, !tbaa !68
  %33 = load ptr, ptr %8, align 8, !tbaa !37
  %34 = load i64, ptr %11, align 8, !tbaa !63
  %35 = getelementptr inbounds i8, ptr %33, i64 %34
  %36 = getelementptr inbounds nuw %"struct.__cxxabiv1::__base_class_type_info", ptr %14, i32 0, i32 1
  %37 = load i64, ptr %36, align 8, !tbaa !78
  %38 = and i64 %37, 2
  %39 = icmp ne i64 %38, 0
  br i1 %39, label %40, label %42

40:                                               ; preds = %29
  %41 = load i32, ptr %9, align 4, !tbaa !70
  br label %43

42:                                               ; preds = %29
  br label %43

43:                                               ; preds = %42, %40
  %44 = phi i32 [ %41, %40 ], [ 2, %42 ]
  %45 = load i8, ptr %10, align 1, !tbaa !33, !range !35, !noundef !36
  %46 = trunc i8 %45 to i1
  %47 = load ptr, ptr %31, align 8, !tbaa !61
  %48 = getelementptr inbounds ptr, ptr %47, i64 6
  %49 = load ptr, ptr %48, align 8
  call void %49(ptr noundef nonnull align 8 dereferenceable(16) %31, ptr noundef %32, ptr noundef %35, i32 noundef %44, i1 noundef zeroext %46)
  call void @llvm.lifetime.end.p0(i64 8, ptr %11) #11
  ret void
}