; Function Attrs: mustprogress uwtable
define hidden void @_ZNK10__cxxabiv122__base_class_type_info16search_below_dstEPNS_19__dynamic_cast_infoEPKvib(ptr noundef nonnull readonly align 8 captures(none) dereferenceable(16) %0, ptr noundef %1, ptr noundef %2, i32 noundef %3, i1 noundef zeroext %4) local_unnamed_addr #7 align 2 {
  %6 = getelementptr inbounds nuw i8, ptr %0, i64 8
  %7 = load i64, ptr %6, align 8, !tbaa !39
  %8 = ashr i64 %7, 8
  %9 = and i64 %7, 1
  %.not = icmp eq i64 %9, 0
  br i1 %.not, label %14, label %10

10:                                               ; preds = %5
  %11 = load ptr, ptr %2, align 8, !tbaa !43
  %12 = getelementptr inbounds i8, ptr %11, i64 %8
  %13 = load i64, ptr %12, align 8, !tbaa !44
  br label %14

14:                                               ; preds = %10, %5
  %.0 = phi i64 [ %13, %10 ], [ %8, %5 ]
  %15 = load ptr, ptr %0, align 8, !tbaa !45
  %16 = getelementptr inbounds i8, ptr %2, i64 %.0
  %17 = and i64 %7, 2
  %.not8 = icmp eq i64 %17, 0
  %18 = select i1 %.not8, i32 2, i32 %3
  %19 = load ptr, ptr %15, align 8, !tbaa !23
  %20 = getelementptr inbounds nuw i8, ptr %19, i64 48
  %21 = load ptr, ptr %20, align 8
  tail call void %21(ptr noundef nonnull align 8 dereferenceable(16) %15, ptr noundef %1, ptr noundef %16, i32 noundef %18, i1 noundef zeroext %4)
  ret void
}